target datalayout = "e-m:e-p270:32:32-p271:32:32-p272:64:64-i64:64-i128:128-f80:128-n8:16:32:64-S128"
target triple = "x86_64-pc-linux-gnu"

%"class.std::__cxx11::basic_string" = type { %"struct.std::__cxx11::basic_string<char>::_Alloc_hider", i64, %union.anon }
%"struct.std::__cxx11::basic_string<char>::_Alloc_hider" = type { ptr }
%union.anon = type { i64, [8 x i8] }
%"struct.std::_Rb_tree_header" = type { %"struct.std::_Rb_tree_node_base", i64 }
%"struct.std::_Rb_tree_node_base" = type { i32, ptr, ptr, ptr }
%"class.benchmark::internal::LogType" = type { ptr }
%"class.benchmark::State" = type { i64, i64, i64, i8, i8, i32, %"class.std::vector", i64, %"class.std::map.6", %"class.std::__cxx11::basic_string", i32, i32, ptr, ptr, ptr, ptr, [8 x i8] }
%"class.std::vector" = type { %"struct.std::_Vector_base" }
%"struct.std::_Vector_base" = type { %"struct.std::_Vector_base<long, std::allocator<long>>::_Vector_impl" }
%"struct.std::_Vector_base<long, std::allocator<long>>::_Vector_impl" = type { %"struct.std::_Vector_base<long, std::allocator<long>>::_Vector_impl_data" }
%"struct.std::_Vector_base<long, std::allocator<long>>::_Vector_impl_data" = type { ptr, ptr, ptr }
%"class.std::map.6" = type { %"class.std::_Rb_tree.7" }
%"class.std::_Rb_tree.7" = type { %"struct.std::_Rb_tree<std::__cxx11::basic_string<char>, std::pair<const std::__cxx11::basic_string<char>, benchmark::Counter>, std::_Select1st<std::pair<const std::__cxx11::basic_string<char>, benchmark::Counter>>, std::less<std::__cxx11::basic_string<char>>>::_Rb_tree_impl" }
%"struct.std::_Rb_tree<std::__cxx11::basic_string<char>, std::pair<const std::__cxx11::basic_string<char>, benchmark::Counter>, std::_Select1st<std::pair<const std::__cxx11::basic_string<char>, benchmark::Counter>>, std::less<std::__cxx11::basic_string<char>>>::_Rb_tree_impl" = type { [8 x i8], %"struct.std::_Rb_tree_header" }
%"class.benchmark::internal::ThreadManager" = type { %"struct.benchmark::internal::ThreadManager::Result", %"class.benchmark::Mutex", %"struct.std::atomic", [4 x i8], %"class.benchmark::Barrier", %"class.benchmark::Mutex", %"class.std::condition_variable" }
%"struct.benchmark::internal::ThreadManager::Result" = type { i64, double, double, double, i64, %"class.std::__cxx11::basic_string", %"class.std::__cxx11::basic_string", i32, %"class.std::map.6" }
%"struct.std::atomic" = type { %"struct.std::__atomic_base" }
%"struct.std::__atomic_base" = type { i32 }
%"class.benchmark::Barrier" = type <{ %"class.benchmark::Mutex", %"class.std::condition_variable", i32, i32, i32, [4 x i8] }>
%"class.benchmark::Mutex" = type { %"class.std::mutex" }
%"class.std::mutex" = type { %"class.std::__mutex_base" }
%"class.std::__mutex_base" = type { %union.pthread_mutex_t }
%union.pthread_mutex_t = type { %struct.__pthread_mutex_s }
%struct.__pthread_mutex_s = type { i32, i32, i32, i32, i32, i16, i16, %struct.__pthread_internal_list }
%struct.__pthread_internal_list = type { ptr, ptr }
%"class.std::condition_variable" = type { %"class.std::__condvar" }
%"class.std::__condvar" = type { %union.pthread_cond_t }
%union.pthread_cond_t = type { %struct.__pthread_cond_s }
%struct.__pthread_cond_s = type { %union.__atomic_wide_counter, %union.__atomic_wide_counter, [2 x i32], [2 x i32], i32, i32, [2 x i32] }
%union.__atomic_wide_counter = type { i64 }

@_ZZN9benchmark8internal18GetNullLogInstanceEvE8null_log = linkonce_odr hidden global %"class.benchmark::internal::LogType" zeroinitializer, comdat, align 8
@_ZGVZN9benchmark8internal18GetNullLogInstanceEvE8null_log = linkonce_odr hidden global i64 0, comdat, align 8

; Function Attrs: mustprogress nounwind uwtable
define linkonce_odr hidden void @_ZN9benchmark8internal7LogTypeC2EPSo(ptr noundef nonnull align 8 dereferenceable(8) %0, ptr noundef %1) unnamed_addr #6 comdat align 2 {
  %3 = alloca ptr, align 8
  %4 = alloca ptr, align 8
  store ptr %0, ptr %3, align 8, !tbaa !79
  store ptr %1, ptr %4, align 8, !tbaa !163
  %5 = load ptr, ptr %3, align 8
  %6 = getelementptr inbounds nuw %"class.benchmark::internal::LogType", ptr %5, i32 0, i32 0
  %7 = load ptr, ptr %4, align 8, !tbaa !163
  store ptr %7, ptr %6, align 8, !tbaa !81
  ret void
}

; Function Attrs: mustprogress uwtable
define linkonce_odr hidden noundef zeroext i1 @_ZN9benchmark8internal13ThreadManager16StartStopBarrierEv(ptr noundef nonnull align 8 dereferenceable(400) %0) #1 comdat align 2 {
  %2 = alloca ptr, align 8
  store ptr %0, ptr %2, align 8, !tbaa !30
  %3 = load ptr, ptr %2, align 8
  %4 = getelementptr inbounds nuw %"class.benchmark::internal::ThreadManager", ptr %3, i32 0, i32 4
  %5 = call noundef zeroext i1 @_ZN9benchmark7Barrier4waitEv(ptr noundef nonnull align 8 dereferenceable(100) %4)
  ret i1 %5
}

; Function Attrs: mustprogress nounwind uwtable
define linkonce_odr hidden noundef zeroext i1 @_ZNK9benchmark5State7skippedEv(ptr noundef nonnull align 64 dereferenceable(184) %0) #6 comdat align 2 {
  %2 = alloca ptr, align 8
  store ptr %0, ptr %2, align 8, !tbaa !22
  %3 = load ptr, ptr %2, align 8
  %4 = getelementptr inbounds nuw %"class.benchmark::State", ptr %3, i32 0, i32 5
  %5 = load i32, ptr %4, align 4, !tbaa !59
  %6 = icmp ne i32 0, %5
  ret i1 %6
}

; Function Attrs: inlinehint mustprogress uwtable
define linkonce_odr hidden noundef nonnull align 8 dereferenceable(8) ptr @_ZN9benchmark8internal18GetNullLogInstanceEv() #8 comdat personality ptr @__gxx_personality_v0 {
  %1 = alloca ptr, align 8
  %2 = alloca i32, align 4
  %3 = load atomic i8, ptr @_ZGVZN9benchmark8internal18GetNullLogInstanceEvE8null_log acquire, align 8
  %4 = icmp eq i8 %3, 0
  br i1 %4, label %5, label %10, !prof !7

5:                                                ; preds = %0
  %6 = call i32 @__cxa_guard_acquire(ptr @_ZGVZN9benchmark8internal18GetNullLogInstanceEvE8null_log) #4
  %7 = icmp ne i32 %6, 0
  br i1 %7, label %8, label %10

8:                                                ; preds = %5
  invoke void @_ZN9benchmark8internal7LogTypeC2EPSo(ptr noundef nonnull align 8 dereferenceable(8) @_ZZN9benchmark8internal18GetNullLogInstanceEvE8null_log, ptr noundef null)
          to label %9 unwind label %11

9:                                                ; preds = %8
  call void @__cxa_guard_release(ptr @_ZGVZN9benchmark8internal18GetNullLogInstanceEvE8null_log) #4
  br label %10

10:                                               ; preds = %9, %5, %0
  ret ptr @_ZZN9benchmark8internal18GetNullLogInstanceEvE8null_log

11:                                               ; preds = %8
  %12 = landingpad { ptr, i32 }
          cleanup
  %13 = extractvalue { ptr, i32 } %12, 0
  store ptr %13, ptr %1, align 8
  %14 = extractvalue { ptr, i32 } %12, 1
  store i32 %14, ptr %2, align 4
  call void @__cxa_guard_abort(ptr @_ZGVZN9benchmark8internal18GetNullLogInstanceEvE8null_log) #4
  br label %15

15:                                               ; preds = %11
  %16 = load ptr, ptr %1, align 8
  %17 = load i32, ptr %2, align 4
  %18 = insertvalue { ptr, i32 } poison, ptr %16, 0
  %19 = insertvalue { ptr, i32 } %18, i32 %17, 1
  resume { ptr, i32 } %19
}

; Function Attrs: mustprogress uwtable
define void @_ZN9benchmark5State16StartKeepRunningEv(ptr noundef nonnull align 64 dereferenceable(184) %0) #1 align 2 {
  %2 = alloca ptr, align 8
  store ptr %0, ptr %2, align 8, !tbaa !22
  %3 = load ptr, ptr %2, align 8
  %4 = call noundef nonnull align 8 dereferenceable(8) ptr @_ZN9benchmark8internal18GetNullLogInstanceEv()
  %5 = getelementptr inbounds nuw %"class.benchmark::State", ptr %3, i32 0, i32 3
  store i8 1, ptr %5, align 8, !tbaa !57
  %6 = call noundef zeroext i1 @_ZNK9benchmark5State7skippedEv(ptr noundef nonnull align 64 dereferenceable(184) %3)
  br i1 %6, label %7, label %8

7:                                                ; preds = %1
  br label %11

8:                                                ; preds = %1
  %9 = getelementptr inbounds nuw %"class.benchmark::State", ptr %3, i32 0, i32 2
  %10 = load i64, ptr %9, align 16, !tbaa !56
  br label %11

11:                                               ; preds = %8, %7
  %12 = phi i64 [ 0, %7 ], [ %10, %8 ]
  %13 = getelementptr inbounds nuw %"class.benchmark::State", ptr %3, i32 0, i32 0
  store i64 %12, ptr %13, align 64, !tbaa !36
  %14 = getelementptr inbounds nuw %"class.benchmark::State", ptr %3, i32 0, i32 15
  %15 = load ptr, ptr %14, align 16, !tbaa !66
  %16 = icmp ne ptr %15, null
  %17 = zext i1 %16 to i64
  %18 = call i64 @llvm.expect.i64(i64 %17, i64 0)
  %19 = icmp ne i64 %18, 0
  br i1 %19, label %20, label %26

20:                                               ; preds = %11
  %21 = getelementptr inbounds nuw %"class.benchmark::State", ptr %3, i32 0, i32 15
  %22 = load ptr, ptr %21, align 16, !tbaa !66
  %23 = load ptr, ptr %22, align 8, !tbaa !151
  %24 = getelementptr inbounds ptr, ptr %23, i64 2
  %25 = load ptr, ptr %24, align 8
  call void %25(ptr noundef nonnull align 8 dereferenceable(8) %22)
  br label %26

26:                                               ; preds = %20, %11
  %27 = getelementptr inbounds nuw %"class.benchmark::State", ptr %3, i32 0, i32 13
  %28 = load ptr, ptr %27, align 32, !tbaa !64
  %29 = call noundef zeroext i1 @_ZN9benchmark8internal13ThreadManager16StartStopBarrierEv(ptr noundef nonnull align 8 dereferenceable(400) %28)
  %30 = call noundef zeroext i1 @_ZNK9benchmark5State7skippedEv(ptr noundef nonnull align 64 dereferenceable(184) %3)
  br i1 %30, label %32, label %31

31:                                               ; preds = %26
  call void @_ZN9benchmark5State12ResumeTimingEv(ptr noundef nonnull align 64 dereferenceable(184) %3)
  br label %32

32:                                               ; preds = %31, %26
  ret void
}