; Function Attrs: mustprogress uwtable
define void @_ZN9benchmark5State16StartKeepRunningEv(ptr noundef nonnull align 64 captures(none) dereferenceable(184) initializes((0, 8), (24, 25)) %0) local_unnamed_addr #0 align 2 personality ptr @__gxx_personality_v0 {
  %2 = load atomic i8, ptr @_ZGVZN9benchmark8internal18GetNullLogInstanceEvE8null_log acquire, align 8
  %3 = icmp eq i8 %2, 0
  br i1 %3, label %4, label %_ZN9benchmark8internal18GetNullLogInstanceEv.exit, !prof !3

4:                                                ; preds = %1
  %5 = tail call i32 @__cxa_guard_acquire(ptr nonnull @_ZGVZN9benchmark8internal18GetNullLogInstanceEvE8null_log) #32
  %.not.i = icmp eq i32 %5, 0
  br i1 %.not.i, label %_ZN9benchmark8internal18GetNullLogInstanceEv.exit, label %6

6:                                                ; preds = %4
  store ptr null, ptr @_ZZN9benchmark8internal18GetNullLogInstanceEvE8null_log, align 8, !tbaa !59
  tail call void @__cxa_guard_release(ptr nonnull @_ZGVZN9benchmark8internal18GetNullLogInstanceEvE8null_log) #32
  br label %_ZN9benchmark8internal18GetNullLogInstanceEv.exit

_ZN9benchmark8internal18GetNullLogInstanceEv.exit: ; preds = %1, %4, %6
  %7 = getelementptr inbounds nuw i8, ptr %0, i64 24
  store i8 1, ptr %7, align 8, !tbaa !36
  %8 = getelementptr inbounds nuw i8, ptr %0, i64 28
  %9 = load i32, ptr %8, align 4, !tbaa !38
  %.not1 = icmp eq i32 %9, 0
  %10 = getelementptr inbounds nuw i8, ptr %0, i64 16
  %11 = load i64, ptr %10, align 16
  %12 = select i1 %.not1, i64 %11, i64 0
  store i64 %12, ptr %0, align 64, !tbaa !129
  %13 = getelementptr inbounds nuw i8, ptr %0, i64 176
  %14 = load ptr, ptr %13, align 16, !tbaa !58
  %.not = icmp eq ptr %14, null
  br i1 %.not, label %19, label %15, !prof !131

15:                                               ; preds = %_ZN9benchmark8internal18GetNullLogInstanceEv.exit
  %16 = load ptr, ptr %14, align 8, !tbaa !132
  %17 = getelementptr inbounds nuw i8, ptr %16, i64 16
  %18 = load ptr, ptr %17, align 8
  tail call void %18(ptr noundef nonnull align 8 dereferenceable(8) %14)
  br label %19

19:                                               ; preds = %15, %_ZN9benchmark8internal18GetNullLogInstanceEv.exit
  %20 = getelementptr inbounds nuw i8, ptr %0, i64 160
  %21 = load ptr, ptr %20, align 32, !tbaa !56
  %22 = getelementptr inbounds nuw i8, ptr %21, i64 208
  %23 = tail call noundef zeroext i1 @_ZN9benchmark7Barrier4waitEv(ptr noundef nonnull align 8 dereferenceable(100) %22)
  %24 = load i32, ptr %8, align 4, !tbaa !38
  %.not2 = icmp eq i32 %24, 0
  br i1 %.not2, label %25, label %26

25:                                               ; preds = %19
  tail call void @_ZN9benchmark5State12ResumeTimingEv(ptr noundef nonnull align 64 dereferenceable(184) %0)
  br label %26

26:                                               ; preds = %25, %19
  ret void
}